target datalayout = "e-m:e-p270:32:32-p271:32:32-p272:64:64-i64:64-i128:128-f80:128-n8:16:32:64-S128"
target triple = "x86_64-pc-linux-gnu"

%struct.blf_params = type { ptr, ptr, ptr, i8, i8, ptr }
%struct.wtap_rec = type { i32, i32, i32, %struct.nstime_t, i32, %struct.nstime_t, i8, %union.anon, ptr, i8, %struct.Buffer, %struct.Buffer }
%struct.nstime_t = type { i64, i32 }
%union.anon = type { %struct.wtap_packet_header }
%struct.wtap_packet_header = type { i32, i32, i32, i32, %union.wtap_pseudo_header }
%union.wtap_pseudo_header = type { %struct.erf_mc_phdr }
%struct.erf_mc_phdr = type { %struct.erf_phdr, [16 x %struct.erf_ehdr], %union.anon.1 }
%struct.erf_phdr = type { i64, i8, i8, i16, i16, i16 }
%struct.erf_ehdr = type { i64 }
%union.anon.1 = type { i32 }
%struct.Buffer = type { ptr, i64, i64, i64 }
%struct.blf_linsleepmodeevent = type { i16, i8, i8 }

@.str.83 = private unnamed_addr constant [56 x i8] c"blf: LIN_SLEEP: not enough bytes for linsleep in object\00", align 1

; Function Attrs: null_pointer_is_valid sspstrong uwtable
define internal zeroext i1 @blf_read_bytes(ptr noundef %0, i64 noundef %1, ptr noundef %2, i64 noundef %3, ptr noundef %4, ptr noundef %5) #2 {
  %7 = alloca i1, align 1
  %8 = alloca ptr, align 8
  %9 = alloca i64, align 8
  %10 = alloca ptr, align 8
  %11 = alloca i64, align 8
  %12 = alloca ptr, align 8
  %13 = alloca ptr, align 8
  store ptr %0, ptr %8, align 8
  store i64 %1, ptr %9, align 8
  store ptr %2, ptr %10, align 8
  store i64 %3, ptr %11, align 8
  store ptr %4, ptr %12, align 8
  store ptr %5, ptr %13, align 8
  %14 = load ptr, ptr %8, align 8
  %15 = load i64, ptr %9, align 8
  %16 = load ptr, ptr %10, align 8
  %17 = load i64, ptr %11, align 8
  %18 = load ptr, ptr %12, align 8
  %19 = load ptr, ptr %13, align 8
  %20 = call zeroext i1 @blf_read_bytes_or_eof(ptr noundef %14, i64 noundef %15, ptr noundef %16, i64 noundef %17, ptr noundef %18, ptr noundef %19)
  br i1 %20, label %28, label %21

21:                                               ; preds = %6
  %22 = load ptr, ptr %12, align 8
  %23 = load i32, ptr %22, align 4
  %24 = icmp eq i32 %23, 0
  br i1 %24, label %25, label %27

25:                                               ; preds = %21
  %26 = load ptr, ptr %12, align 8
  store i32 -12, ptr %26, align 4
  br label %27

27:                                               ; preds = %25, %21
  store i1 false, ptr %7, align 1
  br label %29

28:                                               ; preds = %6
  store i1 true, ptr %7, align 1
  br label %29

29:                                               ; preds = %28, %27
  %30 = load i1, ptr %7, align 1
  ret i1 %30
}

; Function Attrs: null_pointer_is_valid sspstrong uwtable
define internal zeroext i1 @blf_read_linsleepmodeevent(ptr noundef %0, ptr noundef %1, ptr noundef %2, i64 noundef %3, i64 noundef %4, i64 noundef %5, i32 noundef %6, i64 noundef %7) #2 {
  %9 = alloca i1, align 1
  %10 = alloca ptr, align 8
  %11 = alloca ptr, align 8
  %12 = alloca ptr, align 8
  %13 = alloca i64, align 8
  %14 = alloca i64, align 8
  %15 = alloca i64, align 8
  %16 = alloca i32, align 4
  %17 = alloca i64, align 8
  %18 = alloca %struct.blf_linsleepmodeevent, align 2
  %19 = alloca i32, align 4
  %20 = alloca [12 x i8], align 1
  store ptr %0, ptr %10, align 8
  store ptr %1, ptr %11, align 8
  store ptr %2, ptr %12, align 8
  store i64 %3, ptr %13, align 8
  store i64 %4, ptr %14, align 8
  store i64 %5, ptr %15, align 8
  store i32 %6, ptr %16, align 4
  store i64 %7, ptr %17, align 8
  call void @llvm.lifetime.start.p0(i64 4, ptr %18) #13
  %21 = load i64, ptr %15, align 8
  %22 = load i64, ptr %14, align 8
  %23 = load i64, ptr %13, align 8
  %24 = sub i64 %22, %23
  %25 = add i64 %24, 4
  %26 = icmp slt i64 %21, %25
  br i1 %26, label %27, label %34

27:                                               ; preds = %8
  %28 = load ptr, ptr %11, align 8
  store i32 -13, ptr %28, align 4
  %29 = call noalias ptr @wmem_strdup(ptr noundef null, ptr noundef @.str.83)
  %30 = load ptr, ptr %12, align 8
  store ptr %29, ptr %30, align 8
  br label %31

31:                                               ; preds = %27
  br label %32

32:                                               ; preds = %31
  br label %33

33:                                               ; preds = %32
  store i1 false, ptr %9, align 1
  store i32 1, ptr %19, align 4
  br label %107

34:                                               ; preds = %8
  %35 = load ptr, ptr %10, align 8
  %36 = load i64, ptr %14, align 8
  %37 = load ptr, ptr %11, align 8
  %38 = load ptr, ptr %12, align 8
  %39 = call zeroext i1 @blf_read_bytes(ptr noundef %35, i64 noundef %36, ptr noundef %18, i64 noundef 4, ptr noundef %37, ptr noundef %38)
  br i1 %39, label %44, label %40

40:                                               ; preds = %34
  br label %41

41:                                               ; preds = %40
  br label %42

42:                                               ; preds = %41
  br label %43

43:                                               ; preds = %42
  store i1 false, ptr %9, align 1
  store i32 1, ptr %19, align 4
  br label %107

44:                                               ; preds = %34
  %45 = getelementptr inbounds nuw %struct.blf_linsleepmodeevent, ptr %18, i32 0, i32 0
  %46 = load i16, ptr %45, align 2
  %47 = getelementptr inbounds nuw %struct.blf_linsleepmodeevent, ptr %18, i32 0, i32 0
  store i16 %46, ptr %47, align 2
  call void @llvm.lifetime.start.p0(i64 12, ptr %20) #13
  %48 = getelementptr [12 x i8], ptr %20, i64 0, i64 0
  store i8 1, ptr %48, align 1
  %49 = getelementptr [12 x i8], ptr %20, i64 0, i64 1
  store i8 0, ptr %49, align 1
  %50 = getelementptr [12 x i8], ptr %20, i64 0, i64 2
  store i8 0, ptr %50, align 1
  %51 = getelementptr [12 x i8], ptr %20, i64 0, i64 3
  store i8 0, ptr %51, align 1
  %52 = getelementptr [12 x i8], ptr %20, i64 0, i64 4
  store i8 12, ptr %52, align 1
  %53 = getelementptr [12 x i8], ptr %20, i64 0, i64 5
  store i8 0, ptr %53, align 1
  %54 = getelementptr [12 x i8], ptr %20, i64 0, i64 6
  store i8 0, ptr %54, align 1
  %55 = getelementptr [12 x i8], ptr %20, i64 0, i64 7
  store i8 0, ptr %55, align 1
  %56 = getelementptr inbounds nuw %struct.blf_linsleepmodeevent, ptr %18, i32 0, i32 1
  %57 = load i8, ptr %56, align 2
  %58 = zext i8 %57 to i32
  switch i32 %58, label %91 [
    i32 1, label %59
    i32 2, label %64
    i32 3, label %64
    i32 9, label %69
    i32 10, label %69
    i32 11, label %69
    i32 0, label %74
    i32 18, label %74
  ]

59:                                               ; preds = %44
  %60 = getelementptr [12 x i8], ptr %20, i64 0, i64 8
  store i8 -80, ptr %60, align 1
  %61 = getelementptr [12 x i8], ptr %20, i64 0, i64 9
  store i8 -80, ptr %61, align 1
  %62 = getelementptr [12 x i8], ptr %20, i64 0, i64 10
  store i8 0, ptr %62, align 1
  %63 = getelementptr [12 x i8], ptr %20, i64 0, i64 11
  store i8 1, ptr %63, align 1
  br label %96

64:                                               ; preds = %44, %44
  %65 = getelementptr [12 x i8], ptr %20, i64 0, i64 8
  store i8 -80, ptr %65, align 1
  %66 = getelementptr [12 x i8], ptr %20, i64 0, i64 9
  store i8 -80, ptr %66, align 1
  %67 = getelementptr [12 x i8], ptr %20, i64 0, i64 10
  store i8 0, ptr %67, align 1
  %68 = getelementptr [12 x i8], ptr %20, i64 0, i64 11
  store i8 2, ptr %68, align 1
  br label %96

69:                                               ; preds = %44, %44, %44
  %70 = getelementptr [12 x i8], ptr %20, i64 0, i64 8
  store i8 -80, ptr %70, align 1
  %71 = getelementptr [12 x i8], ptr %20, i64 0, i64 9
  store i8 -80, ptr %71, align 1
  %72 = getelementptr [12 x i8], ptr %20, i64 0, i64 10
  store i8 0, ptr %72, align 1
  %73 = getelementptr [12 x i8], ptr %20, i64 0, i64 11
  store i8 4, ptr %73, align 1
  br label %96

74:                                               ; preds = %44, %44
  %75 = getelementptr inbounds nuw %struct.blf_linsleepmodeevent, ptr %18, i32 0, i32 2
  %76 = load i8, ptr %75, align 1
  %77 = zext i8 %76 to i32
  %78 = and i32 %77, 2
  %79 = icmp ne i32 %78, 0
  br i1 %79, label %80, label %85

80:                                               ; preds = %74
  %81 = getelementptr [12 x i8], ptr %20, i64 0, i64 8
  store i8 -80, ptr %81, align 1
  %82 = getelementptr [12 x i8], ptr %20, i64 0, i64 9
  store i8 -80, ptr %82, align 1
  %83 = getelementptr [12 x i8], ptr %20, i64 0, i64 10
  store i8 0, ptr %83, align 1
  %84 = getelementptr [12 x i8], ptr %20, i64 0, i64 11
  store i8 4, ptr %84, align 1
  br label %90

85:                                               ; preds = %74
  %86 = getelementptr [12 x i8], ptr %20, i64 0, i64 8
  store i8 -80, ptr %86, align 1
  %87 = getelementptr [12 x i8], ptr %20, i64 0, i64 9
  store i8 -80, ptr %87, align 1
  %88 = getelementptr [12 x i8], ptr %20, i64 0, i64 10
  store i8 0, ptr %88, align 1
  %89 = getelementptr [12 x i8], ptr %20, i64 0, i64 11
  store i8 2, ptr %89, align 1
  br label %90

90:                                               ; preds = %85, %80
  br label %96

91:                                               ; preds = %44
  %92 = getelementptr [12 x i8], ptr %20, i64 0, i64 8
  store i8 0, ptr %92, align 1
  %93 = getelementptr [12 x i8], ptr %20, i64 0, i64 9
  store i8 0, ptr %93, align 1
  %94 = getelementptr [12 x i8], ptr %20, i64 0, i64 10
  store i8 0, ptr %94, align 1
  %95 = getelementptr [12 x i8], ptr %20, i64 0, i64 11
  store i8 0, ptr %95, align 1
  br label %96

96:                                               ; preds = %91, %90, %69, %64, %59
  %97 = load ptr, ptr %10, align 8
  %98 = getelementptr inbounds nuw %struct.blf_params, ptr %97, i32 0, i32 1
  %99 = load ptr, ptr %98, align 8
  %100 = getelementptr inbounds nuw %struct.wtap_rec, ptr %99, i32 0, i32 11
  %101 = getelementptr inbounds [12 x i8], ptr %20, i64 0, i64 0
  call void @ws_buffer_append(ptr noundef %100, ptr noundef %101, i64 noundef 12)
  %102 = load ptr, ptr %10, align 8
  %103 = load i32, ptr %16, align 4
  %104 = load i64, ptr %17, align 8
  %105 = getelementptr inbounds nuw %struct.blf_linsleepmodeevent, ptr %18, i32 0, i32 0
  %106 = load i16, ptr %105, align 2
  call void @blf_init_rec(ptr noundef %102, i32 noundef %103, i64 noundef %104, i32 noundef 107, i16 noundef zeroext %106, i16 noundef zeroext -1, i32 noundef 12, i32 noundef 12)
  store i1 true, ptr %9, align 1
  store i32 1, ptr %19, align 4
  call void @llvm.lifetime.end.p0(i64 12, ptr %20) #13
  br label %107

107:                                              ; preds = %96, %43, %33
  call void @llvm.lifetime.end.p0(i64 4, ptr %18) #13
  %108 = load i1, ptr %9, align 1
  ret i1 %108
}